target datalayout = "e-m:e-p270:32:32-p271:32:32-p272:64:64-i64:64-i128:128-f80:128-n8:16:32:64-S128"
target triple = "x86_64-pc-linux-gnu"

%"class.llvm::SmallVectorBase" = type { ptr, i32, i32 }
%"class.llvm::AnalysisUsage" = type <{ %"class.llvm::SmallVector.213", %"class.llvm::SmallVector.218", %"class.llvm::SmallVector.218", %"class.llvm::SmallVector.220", i8, [7 x i8] }>
%"class.llvm::SmallVector.213" = type { %"class.llvm::SmallVectorImpl.214", %"struct.llvm::SmallVectorStorage.217" }
%"class.llvm::SmallVectorImpl.214" = type { %"class.llvm::SmallVectorTemplateBase.215" }
%"class.llvm::SmallVectorTemplateBase.215" = type { %"class.llvm::SmallVectorTemplateCommon.216" }
%"class.llvm::SmallVectorTemplateCommon.216" = type { %"class.llvm::SmallVectorBase" }
%"struct.llvm::SmallVectorStorage.217" = type { [64 x i8] }
%"class.llvm::SmallVector.218" = type { %"class.llvm::SmallVectorImpl.214", %"struct.llvm::SmallVectorStorage.219" }
%"struct.llvm::SmallVectorStorage.219" = type { [16 x i8] }
%"class.llvm::SmallVector.220" = type { %"class.llvm::SmallVectorImpl.214" }

@_ZN4llvm24DominatorTreeWrapperPass2IDE = external global i8, align 1
@_ZN4llvm26ScalarEvolutionWrapperPass2IDE = external global i8, align 1
@_ZN4llvm28TargetLibraryInfoWrapperPass2IDE = external global i8, align 1
@_ZN4llvm22AssumptionCacheTracker2IDE = external global i8, align 1
@_ZN4llvm30TargetTransformInfoWrapperPass2IDE = external global i8, align 1

; Function Attrs: mustprogress nounwind uwtable
define linkonce_odr hidden noundef nonnull align 8 dereferenceable(161) ptr @_ZN4llvm13AnalysisUsage11addRequiredINS_30TargetTransformInfoWrapperPassEEERS0_v(ptr noundef nonnull align 8 dereferenceable(161) %0) #0 comdat align 2 {
  %2 = alloca ptr, align 8
  store ptr %0, ptr %2, align 8
  %3 = load ptr, ptr %2, align 8
  %4 = call noundef nonnull align 8 dereferenceable(161) ptr @_ZN4llvm13AnalysisUsage13addRequiredIDERc(ptr noundef nonnull align 8 dereferenceable(161) %3, ptr noundef nonnull align 1 dereferenceable(1) @_ZN4llvm30TargetTransformInfoWrapperPass2IDE)
  ret ptr %4
}

; Function Attrs: mustprogress nounwind uwtable
define linkonce_odr hidden noundef nonnull align 8 dereferenceable(161) ptr @_ZN4llvm13AnalysisUsage11addRequiredINS_28TargetLibraryInfoWrapperPassEEERS0_v(ptr noundef nonnull align 8 dereferenceable(161) %0) #0 comdat align 2 {
  %2 = alloca ptr, align 8
  store ptr %0, ptr %2, align 8
  %3 = load ptr, ptr %2, align 8
  %4 = call noundef nonnull align 8 dereferenceable(161) ptr @_ZN4llvm13AnalysisUsage13addRequiredIDERc(ptr noundef nonnull align 8 dereferenceable(161) %3, ptr noundef nonnull align 1 dereferenceable(1) @_ZN4llvm28TargetLibraryInfoWrapperPass2IDE)
  ret ptr %4
}

; Function Attrs: mustprogress nounwind uwtable
define linkonce_odr hidden noundef nonnull align 8 dereferenceable(161) ptr @_ZN4llvm13AnalysisUsage11addRequiredINS_26ScalarEvolutionWrapperPassEEERS0_v(ptr noundef nonnull align 8 dereferenceable(161) %0) #0 comdat align 2 {
  %2 = alloca ptr, align 8
  store ptr %0, ptr %2, align 8
  %3 = load ptr, ptr %2, align 8
  %4 = call noundef nonnull align 8 dereferenceable(161) ptr @_ZN4llvm13AnalysisUsage13addRequiredIDERc(ptr noundef nonnull align 8 dereferenceable(161) %3, ptr noundef nonnull align 1 dereferenceable(1) @_ZN4llvm26ScalarEvolutionWrapperPass2IDE)
  ret ptr %4
}

; Function Attrs: mustprogress nounwind uwtable
define linkonce_odr hidden noundef nonnull align 8 dereferenceable(161) ptr @_ZN4llvm13AnalysisUsage11addRequiredINS_24DominatorTreeWrapperPassEEERS0_v(ptr noundef nonnull align 8 dereferenceable(161) %0) #0 comdat align 2 {
  %2 = alloca ptr, align 8
  store ptr %0, ptr %2, align 8
  %3 = load ptr, ptr %2, align 8
  %4 = call noundef nonnull align 8 dereferenceable(161) ptr @_ZN4llvm13AnalysisUsage13addRequiredIDERc(ptr noundef nonnull align 8 dereferenceable(161) %3, ptr noundef nonnull align 1 dereferenceable(1) @_ZN4llvm24DominatorTreeWrapperPass2IDE)
  ret ptr %4
}

; Function Attrs: mustprogress nounwind uwtable
define linkonce_odr hidden noundef nonnull align 8 dereferenceable(161) ptr @_ZN4llvm13AnalysisUsage11addRequiredINS_22AssumptionCacheTrackerEEERS0_v(ptr noundef nonnull align 8 dereferenceable(161) %0) #0 comdat align 2 {
  %2 = alloca ptr, align 8
  store ptr %0, ptr %2, align 8
  %3 = load ptr, ptr %2, align 8
  %4 = call noundef nonnull align 8 dereferenceable(161) ptr @_ZN4llvm13AnalysisUsage13addRequiredIDERc(ptr noundef nonnull align 8 dereferenceable(161) %3, ptr noundef nonnull align 1 dereferenceable(1) @_ZN4llvm22AssumptionCacheTracker2IDE)
  ret ptr %4
}

; Function Attrs: mustprogress nounwind uwtable
define linkonce_odr hidden noundef nonnull align 8 dereferenceable(161) ptr @_ZN4llvm13AnalysisUsage12addPreservedINS_28TargetLibraryInfoWrapperPassEEERS0_v(ptr noundef nonnull align 8 dereferenceable(161) %0) #0 comdat align 2 {
  %2 = alloca ptr, align 8
  store ptr %0, ptr %2, align 8
  %3 = load ptr, ptr %2, align 8
  %4 = getelementptr inbounds nuw %"class.llvm::AnalysisUsage", ptr %3, i32 0, i32 2
  call void @_ZN4llvm13AnalysisUsage10pushUniqueERNS_15SmallVectorImplIPKvEES3_(ptr noundef nonnull align 8 dereferenceable(161) %3, ptr noundef nonnull align 8 dereferenceable(16) %4, ptr noundef @_ZN4llvm28TargetLibraryInfoWrapperPass2IDE)
  ret ptr %3
}

; Function Attrs: mustprogress nounwind uwtable
define linkonce_odr hidden noundef nonnull align 8 dereferenceable(161) ptr @_ZN4llvm13AnalysisUsage12addPreservedINS_26ScalarEvolutionWrapperPassEEERS0_v(ptr noundef nonnull align 8 dereferenceable(161) %0) #0 comdat align 2 {
  %2 = alloca ptr, align 8
  store ptr %0, ptr %2, align 8
  %3 = load ptr, ptr %2, align 8
  %4 = getelementptr inbounds nuw %"class.llvm::AnalysisUsage", ptr %3, i32 0, i32 2
  call void @_ZN4llvm13AnalysisUsage10pushUniqueERNS_15SmallVectorImplIPKvEES3_(ptr noundef nonnull align 8 dereferenceable(161) %3, ptr noundef nonnull align 8 dereferenceable(16) %4, ptr noundef @_ZN4llvm26ScalarEvolutionWrapperPass2IDE)
  ret ptr %3
}

; Function Attrs: mustprogress nounwind uwtable
define linkonce_odr hidden noundef nonnull align 8 dereferenceable(161) ptr @_ZN4llvm13AnalysisUsage12addPreservedINS_24DominatorTreeWrapperPassEEERS0_v(ptr noundef nonnull align 8 dereferenceable(161) %0) #0 comdat align 2 {
  %2 = alloca ptr, align 8
  store ptr %0, ptr %2, align 8
  %3 = load ptr, ptr %2, align 8
  %4 = getelementptr inbounds nuw %"class.llvm::AnalysisUsage", ptr %3, i32 0, i32 2
  call void @_ZN4llvm13AnalysisUsage10pushUniqueERNS_15SmallVectorImplIPKvEES3_(ptr noundef nonnull align 8 dereferenceable(161) %3, ptr noundef nonnull align 8 dereferenceable(16) %4, ptr noundef @_ZN4llvm24DominatorTreeWrapperPass2IDE)
  ret ptr %3
}

; Function Attrs: mustprogress nounwind uwtable
define internal void @_ZNK12_GLOBAL__N_125NaryReassociateLegacyPass16getAnalysisUsageERN4llvm13AnalysisUsageE(ptr noundef nonnull align 8 dereferenceable(104) %0, ptr noundef nonnull align 8 dereferenceable(161) %1) unnamed_addr #0 align 2 {
  %3 = alloca ptr, align 8
  %4 = alloca ptr, align 8
  store ptr %0, ptr %3, align 8
  store ptr %1, ptr %4, align 8
  %5 = load ptr, ptr %4, align 8
  %6 = call noundef nonnull align 8 dereferenceable(161) ptr @_ZN4llvm13AnalysisUsage12addPreservedINS_24DominatorTreeWrapperPassEEERS0_v(ptr noundef nonnull align 8 dereferenceable(161) %5)
  %7 = load ptr, ptr %4, align 8
  %8 = call noundef nonnull align 8 dereferenceable(161) ptr @_ZN4llvm13AnalysisUsage12addPreservedINS_26ScalarEvolutionWrapperPassEEERS0_v(ptr noundef nonnull align 8 dereferenceable(161) %7)
  %9 = load ptr, ptr %4, align 8
  %10 = call noundef nonnull align 8 dereferenceable(161) ptr @_ZN4llvm13AnalysisUsage12addPreservedINS_28TargetLibraryInfoWrapperPassEEERS0_v(ptr noundef nonnull align 8 dereferenceable(161) %9)
  %11 = load ptr, ptr %4, align 8
  %12 = call noundef nonnull align 8 dereferenceable(161) ptr @_ZN4llvm13AnalysisUsage11addRequiredINS_22AssumptionCacheTrackerEEERS0_v(ptr noundef nonnull align 8 dereferenceable(161) %11)
  %13 = load ptr, ptr %4, align 8
  %14 = call noundef nonnull align 8 dereferenceable(161) ptr @_ZN4llvm13AnalysisUsage11addRequiredINS_24DominatorTreeWrapperPassEEERS0_v(ptr noundef nonnull align 8 dereferenceable(161) %13)
  %15 = load ptr, ptr %4, align 8
  %16 = call noundef nonnull align 8 dereferenceable(161) ptr @_ZN4llvm13AnalysisUsage11addRequiredINS_26ScalarEvolutionWrapperPassEEERS0_v(ptr noundef nonnull align 8 dereferenceable(161) %15)
  %17 = load ptr, ptr %4, align 8
  %18 = call noundef nonnull align 8 dereferenceable(161) ptr @_ZN4llvm13AnalysisUsage11addRequiredINS_28TargetLibraryInfoWrapperPassEEERS0_v(ptr noundef nonnull align 8 dereferenceable(161) %17)
  %19 = load ptr, ptr %4, align 8
  %20 = call noundef nonnull align 8 dereferenceable(161) ptr @_ZN4llvm13AnalysisUsage11addRequiredINS_30TargetTransformInfoWrapperPassEEERS0_v(ptr noundef nonnull align 8 dereferenceable(161) %19)
  %21 = load ptr, ptr %4, align 8
  call void @_ZN4llvm13AnalysisUsage15setPreservesCFGEv(ptr noundef nonnull align 8 dereferenceable(161) %21)
  ret void
}